; Function Attrs: mustprogress uwtable
define noundef nonnull align 8 dereferenceable(201) ptr @_ZN7Imf_3_410IDManifest3addERKNS0_20ChannelGroupManifestE(ptr noundef nonnull align 8 dereferenceable(24) %0, ptr noundef nonnull align 8 dereferenceable(201) %1) local_unnamed_addr #6 align 2 {
  %3 = getelementptr inbounds nuw i8, ptr %0, i64 8
  %4 = load ptr, ptr %3, align 8, !tbaa !40
  %5 = getelementptr inbounds nuw i8, ptr %0, i64 16
  %6 = load ptr, ptr %5, align 8, !tbaa !98
  %.not.i = icmp eq ptr %4, %6
  br i1 %.not.i, label %10, label %7

7:                                                ; preds = %2
  tail call void @_ZN7Imf_3_410IDManifest20ChannelGroupManifestC2ERKS1_(ptr noundef nonnull align 8 dereferenceable(201) %4, ptr noundef nonnull align 8 dereferenceable(201) %1)
  %8 = load ptr, ptr %3, align 8, !tbaa !40
  %9 = getelementptr inbounds nuw i8, ptr %8, i64 208
  store ptr %9, ptr %3, align 8, !tbaa !40
  br label %_ZNSt6vectorIN7Imf_3_410IDManifest20ChannelGroupManifestESaIS2_EE9push_backERKS2_.exit

10:                                               ; preds = %2
  tail call void @_ZNSt6vectorIN7Imf_3_410IDManifest20ChannelGroupManifestESaIS2_EE17_M_realloc_insertIJRKS2_EEEvN9__gnu_cxx17__normal_iteratorIPS2_S4_EEDpOT_(ptr noundef nonnull align 8 dereferenceable(24) %0, ptr %4, ptr noundef nonnull align 8 dereferenceable(201) %1)
  %.pre = load ptr, ptr %3, align 8, !tbaa !205
  br label %_ZNSt6vectorIN7Imf_3_410IDManifest20ChannelGroupManifestESaIS2_EE9push_backERKS2_.exit

_ZNSt6vectorIN7Imf_3_410IDManifest20ChannelGroupManifestESaIS2_EE9push_backERKS2_.exit: ; preds = %7, %10
  %11 = phi ptr [ %9, %7 ], [ %.pre, %10 ]
  %12 = getelementptr inbounds i8, ptr %11, i64 -208
  ret ptr %12
}